target datalayout = "e-m:e-p270:32:32-p271:32:32-p272:64:64-i64:64-i128:128-f80:128-n8:16:32:64-S128"
target triple = "x86_64-pc-linux-gnu"

%struct.dbg_state = type { ptr, ptr, ptr, i32, i32, i32, i32 }
%struct.cli_bc_ctx = type { i8, i16, i32, ptr, ptr, i32, i32, ptr, ptr, ptr, i32, i32, i64, ptr, ptr, ptr, %struct.cli_bc_hooks, %struct.cli_exe_info, [64 x i32], [64 x i32], i32, ptr, ptr, i32, i32, i32, i32, ptr, i32, ptr, ptr, i32, i32, i32, i32, i32, i32, ptr, ptr, ptr, ptr, ptr, ptr, ptr, i32, i32, i32, i32, ptr, ptr, ptr, ptr, ptr, i32, i32, i32, i32, ptr, ptr, ptr, ptr, i32, i32, i32, ptr, i32, ptr, i32, i32, ptr, i32 }
%struct.cli_bc_hooks = type { ptr, ptr, ptr, ptr, ptr }
%struct.cli_exe_info = type { ptr, i32, i32, i16, i32, i32, %struct.cli_hashset, i32, i32, i32, i32, i32, i32, i32, i32, i32, %struct.pe_image_file_hdr, %union.anon, [16 x %struct.pe_image_data_dir] }
%struct.cli_hashset = type { ptr, ptr, ptr, i32, i32, i32, i32 }
%struct.pe_image_file_hdr = type { i32, i16, i16, i32, i32, i32, i16, i16 }
%union.anon = type { %struct.pe_image_optional_hdr64 }
%struct.pe_image_optional_hdr64 = type { i16, i8, i8, i32, i32, i32, i32, i32, i64, i32, i32, i16, i16, i16, i16, i16, i16, i32, i32, i32, i32, i16, i16, i64, i64, i64, i64, i32, i32 }
%struct.pe_image_data_dir = type { i32, i32 }

@stderr = external global ptr, align 8
@dbg_state = internal global %struct.dbg_state zeroinitializer, align 8
@.str.59 = private unnamed_addr constant [50 x i8] c"[trace] %s:%u:%u -> %s:%u:%u Entered function %s\0A\00", align 1
@.str.60 = private unnamed_addr constant [29 x i8] c"[trace] function parameter:\0A\00", align 1
@.str.61 = private unnamed_addr constant [30 x i8] c"[trace] %s:%u:%u -> %s:%u:%u\0A\00", align 1
@.str.62 = private unnamed_addr constant [18 x i8] c"[trace] %s:%u:%u\0A\00", align 1

; Function Attrs: nounwind uwtable
define internal void @tracehook(ptr noundef %0, i32 noundef %1) #0 {
  %3 = alloca ptr, align 8
  %4 = alloca i32, align 4
  store ptr %0, ptr %3, align 8
  store i32 %1, ptr %4, align 4
  %5 = load ptr, ptr %3, align 8
  %6 = getelementptr inbounds %struct.cli_bc_ctx, ptr %5, i32 0, i32 41
  %7 = load ptr, ptr %6, align 8
  store ptr %7, ptr @dbg_state, align 8
  %8 = load ptr, ptr %3, align 8
  %9 = getelementptr inbounds %struct.cli_bc_ctx, ptr %8, i32 0, i32 42
  %10 = load ptr, ptr %9, align 8
  %11 = load i8, ptr %10, align 1
  %12 = sext i8 %11 to i32
  %13 = icmp eq i32 %12, 63
  br i1 %13, label %14, label %15

14:                                               ; preds = %2
  br label %82

15:                                               ; preds = %2
  %16 = load i32, ptr %4, align 4
  switch i32 %16, label %71 [
    i32 1, label %17
    i32 2, label %38
    i32 3, label %41
    i32 4, label %59
    i32 5, label %59
  ]

17:                                               ; preds = %15
  %18 = load ptr, ptr @stderr, align 8
  %19 = load ptr, ptr getelementptr inbounds (%struct.dbg_state, ptr @dbg_state, i32 0, i32 1), align 8
  %20 = load i32, ptr getelementptr inbounds (%struct.dbg_state, ptr @dbg_state, i32 0, i32 4), align 4
  %21 = load i32, ptr getelementptr inbounds (%struct.dbg_state, ptr @dbg_state, i32 0, i32 5), align 8
  %22 = load ptr, ptr %3, align 8
  %23 = getelementptr inbounds %struct.cli_bc_ctx, ptr %22, i32 0, i32 42
  %24 = load ptr, ptr %23, align 8
  %25 = load ptr, ptr %3, align 8
  %26 = getelementptr inbounds %struct.cli_bc_ctx, ptr %25, i32 0, i32 46
  %27 = load i32, ptr %26, align 8
  %28 = load ptr, ptr %3, align 8
  %29 = getelementptr inbounds %struct.cli_bc_ctx, ptr %28, i32 0, i32 47
  %30 = load i32, ptr %29, align 4
  %31 = load ptr, ptr %3, align 8
  %32 = getelementptr inbounds %struct.cli_bc_ctx, ptr %31, i32 0, i32 43
  %33 = load ptr, ptr %32, align 8
  %34 = call i32 (ptr, ptr, ...) @fprintf(ptr noundef %18, ptr noundef @.str.59, ptr noundef %19, i32 noundef %20, i32 noundef %21, ptr noundef %24, i32 noundef %27, i32 noundef %30, ptr noundef %33) #10
  %35 = load ptr, ptr %3, align 8
  %36 = getelementptr inbounds %struct.cli_bc_ctx, ptr %35, i32 0, i32 43
  %37 = load ptr, ptr %36, align 8
  store ptr %37, ptr getelementptr inbounds (%struct.dbg_state, ptr @dbg_state, i32 0, i32 2), align 8
  br label %72

38:                                               ; preds = %15
  %39 = load ptr, ptr @stderr, align 8
  %40 = call i32 (ptr, ptr, ...) @fprintf(ptr noundef %39, ptr noundef @.str.60) #10
  br label %82

41:                                               ; preds = %15
  %42 = load ptr, ptr @stderr, align 8
  %43 = load ptr, ptr getelementptr inbounds (%struct.dbg_state, ptr @dbg_state, i32 0, i32 1), align 8
  %44 = load i32, ptr getelementptr inbounds (%struct.dbg_state, ptr @dbg_state, i32 0, i32 4), align 4
  %45 = load i32, ptr getelementptr inbounds (%struct.dbg_state, ptr @dbg_state, i32 0, i32 5), align 8
  %46 = load ptr, ptr %3, align 8
  %47 = getelementptr inbounds %struct.cli_bc_ctx, ptr %46, i32 0, i32 42
  %48 = load ptr, ptr %47, align 8
  %49 = load ptr, ptr %3, align 8
  %50 = getelementptr inbounds %struct.cli_bc_ctx, ptr %49, i32 0, i32 46
  %51 = load i32, ptr %50, align 8
  %52 = load ptr, ptr %3, align 8
  %53 = getelementptr inbounds %struct.cli_bc_ctx, ptr %52, i32 0, i32 47
  %54 = load i32, ptr %53, align 4
  %55 = call i32 (ptr, ptr, ...) @fprintf(ptr noundef %42, ptr noundef @.str.61, ptr noundef %43, i32 noundef %44, i32 noundef %45, ptr noundef %48, i32 noundef %51, i32 noundef %54) #10
  %56 = load ptr, ptr %3, align 8
  %57 = getelementptr inbounds %struct.cli_bc_ctx, ptr %56, i32 0, i32 43
  %58 = load ptr, ptr %57, align 8
  store ptr %58, ptr getelementptr inbounds (%struct.dbg_state, ptr @dbg_state, i32 0, i32 2), align 8
  br label %72

59:                                               ; preds = %15, %15
  %60 = load i32, ptr getelementptr inbounds (%struct.dbg_state, ptr @dbg_state, i32 0, i32 6), align 4
  %61 = icmp ne i32 %60, 0
  br i1 %61, label %62, label %64

62:                                               ; preds = %59
  %63 = load ptr, ptr %3, align 8
  call void @cli_bytecode_debug_printsrc(ptr noundef %63)
  br label %70

64:                                               ; preds = %59
  %65 = load ptr, ptr @stderr, align 8
  %66 = load ptr, ptr getelementptr inbounds (%struct.dbg_state, ptr @dbg_state, i32 0, i32 1), align 8
  %67 = load i32, ptr getelementptr inbounds (%struct.dbg_state, ptr @dbg_state, i32 0, i32 4), align 4
  %68 = load i32, ptr getelementptr inbounds (%struct.dbg_state, ptr @dbg_state, i32 0, i32 5), align 8
  %69 = call i32 (ptr, ptr, ...) @fprintf(ptr noundef %65, ptr noundef @.str.62, ptr noundef %66, i32 noundef %67, i32 noundef %68) #10
  br label %70

70:                                               ; preds = %64, %62
  br label %72

71:                                               ; preds = %15
  br label %72

72:                                               ; preds = %71, %70, %41, %17
  %73 = load ptr, ptr %3, align 8
  %74 = getelementptr inbounds %struct.cli_bc_ctx, ptr %73, i32 0, i32 42
  %75 = load ptr, ptr %74, align 8
  store ptr %75, ptr getelementptr inbounds (%struct.dbg_state, ptr @dbg_state, i32 0, i32 1), align 8
  %76 = load ptr, ptr %3, align 8
  %77 = getelementptr inbounds %struct.cli_bc_ctx, ptr %76, i32 0, i32 46
  %78 = load i32, ptr %77, align 8
  store i32 %78, ptr getelementptr inbounds (%struct.dbg_state, ptr @dbg_state, i32 0, i32 4), align 4
  %79 = load ptr, ptr %3, align 8
  %80 = getelementptr inbounds %struct.cli_bc_ctx, ptr %79, i32 0, i32 47
  %81 = load i32, ptr %80, align 4
  store i32 %81, ptr getelementptr inbounds (%struct.dbg_state, ptr @dbg_state, i32 0, i32 5), align 8
  br label %82

82:                                               ; preds = %72, %38, %14
  ret void
}