; Function Attrs: nounwind uwtable
define internal void @tracehook(ptr noundef %0, i32 noundef %1) #0 {
  %3 = getelementptr inbounds i8, ptr %0, i64 1152
  %4 = load ptr, ptr %3, align 8
  store ptr %4, ptr @dbg_state, align 8
  %5 = getelementptr inbounds i8, ptr %0, i64 1160
  %6 = load ptr, ptr %5, align 8
  %7 = load i8, ptr %6, align 1
  %8 = icmp eq i8 %7, 63
  br i1 %8, label %51, label %9

9:                                                ; preds = %2
  switch i32 %1, label %47 [
    i32 1, label %10
    i32 2, label %23
    i32 3, label %26
    i32 4, label %38
    i32 5, label %38
  ]

10:                                               ; preds = %9
  %11 = load ptr, ptr @stderr, align 8
  %12 = load ptr, ptr getelementptr inbounds (%struct.dbg_state, ptr @dbg_state, i64 0, i32 1), align 8
  %13 = load i32, ptr getelementptr inbounds (%struct.dbg_state, ptr @dbg_state, i64 0, i32 4), align 4
  %14 = load i32, ptr getelementptr inbounds (%struct.dbg_state, ptr @dbg_state, i64 0, i32 5), align 8
  %15 = getelementptr inbounds i8, ptr %0, i64 1184
  %16 = load i32, ptr %15, align 8
  %17 = getelementptr inbounds i8, ptr %0, i64 1188
  %18 = load i32, ptr %17, align 4
  %19 = getelementptr inbounds i8, ptr %0, i64 1168
  %20 = load ptr, ptr %19, align 8
  %21 = tail call i32 (ptr, ptr, ...) @fprintf(ptr noundef %11, ptr noundef nonnull @.str.59, ptr noundef %12, i32 noundef %13, i32 noundef %14, ptr noundef nonnull %6, i32 noundef %16, i32 noundef %18, ptr noundef %20) #18
  %22 = load ptr, ptr %19, align 8
  store ptr %22, ptr getelementptr inbounds (%struct.dbg_state, ptr @dbg_state, i64 0, i32 2), align 8
  br label %47

23:                                               ; preds = %9
  %24 = load ptr, ptr @stderr, align 8
  %25 = tail call i64 @fwrite(ptr nonnull @.str.60, i64 28, i64 1, ptr %24) #17
  br label %51

26:                                               ; preds = %9
  %27 = load ptr, ptr @stderr, align 8
  %28 = load ptr, ptr getelementptr inbounds (%struct.dbg_state, ptr @dbg_state, i64 0, i32 1), align 8
  %29 = load i32, ptr getelementptr inbounds (%struct.dbg_state, ptr @dbg_state, i64 0, i32 4), align 4
  %30 = load i32, ptr getelementptr inbounds (%struct.dbg_state, ptr @dbg_state, i64 0, i32 5), align 8
  %31 = getelementptr inbounds i8, ptr %0, i64 1184
  %32 = load i32, ptr %31, align 8
  %33 = getelementptr inbounds i8, ptr %0, i64 1188
  %34 = load i32, ptr %33, align 4
  %35 = tail call i32 (ptr, ptr, ...) @fprintf(ptr noundef %27, ptr noundef nonnull @.str.61, ptr noundef %28, i32 noundef %29, i32 noundef %30, ptr noundef nonnull %6, i32 noundef %32, i32 noundef %34) #18
  %36 = getelementptr inbounds i8, ptr %0, i64 1168
  %37 = load ptr, ptr %36, align 8
  store ptr %37, ptr getelementptr inbounds (%struct.dbg_state, ptr @dbg_state, i64 0, i32 2), align 8
  br label %47

38:                                               ; preds = %9, %9
  %39 = load i32, ptr getelementptr inbounds (%struct.dbg_state, ptr @dbg_state, i64 0, i32 6), align 4
  %.not = icmp eq i32 %39, 0
  br i1 %.not, label %41, label %40

40:                                               ; preds = %38
  tail call void @cli_bytecode_debug_printsrc(ptr noundef nonnull %0) #15
  br label %47

41:                                               ; preds = %38
  %42 = load ptr, ptr @stderr, align 8
  %43 = load ptr, ptr getelementptr inbounds (%struct.dbg_state, ptr @dbg_state, i64 0, i32 1), align 8
  %44 = load i32, ptr getelementptr inbounds (%struct.dbg_state, ptr @dbg_state, i64 0, i32 4), align 4
  %45 = load i32, ptr getelementptr inbounds (%struct.dbg_state, ptr @dbg_state, i64 0, i32 5), align 8
  %46 = tail call i32 (ptr, ptr, ...) @fprintf(ptr noundef %42, ptr noundef nonnull @.str.62, ptr noundef %43, i32 noundef %44, i32 noundef %45) #18
  br label %47

47:                                               ; preds = %9, %40, %41, %26, %10
  %48 = load ptr, ptr %5, align 8
  store ptr %48, ptr getelementptr inbounds (%struct.dbg_state, ptr @dbg_state, i64 0, i32 1), align 8
  %49 = getelementptr inbounds i8, ptr %0, i64 1184
  %50 = load <2 x i32>, ptr %49, align 8
  store <2 x i32> %50, ptr getelementptr inbounds (%struct.dbg_state, ptr @dbg_state, i64 0, i32 4), align 4
  br label %51

51:                                               ; preds = %2, %47, %23
  ret void
}